target datalayout = "e-m:e-p270:32:32-p271:32:32-p272:64:64-i64:64-i128:128-f80:128-n8:16:32:64-S128"
target triple = "x86_64-unknown-linux-gnu"

%"struct.Imf_3_2::InputFile::Data" = type <{ %"class.std::mutex", %"class.Imf_3_2::Header", i32, i8, [3 x i8], ptr, ptr, ptr, i32, i32, i32, [4 x i8], %"class.Imf_3_2::FrameBuffer", ptr, ptr, i32, i32, i32, i32, ptr, i8, [7 x i8], ptr, ptr, i8, [7 x i8] }>
%"class.std::mutex" = type { %"class.std::__mutex_base" }
%"class.std::__mutex_base" = type { %union.pthread_mutex_t }
%union.pthread_mutex_t = type { %struct.__pthread_mutex_s }
%struct.__pthread_mutex_s = type { i32, i32, i32, i32, i32, i16, i16, %struct.__pthread_internal_list }
%struct.__pthread_internal_list = type { ptr, ptr }
%"class.Imf_3_2::Header" = type <{ %"class.std::map", i8, [7 x i8] }>
%"class.std::map" = type { %"class.std::_Rb_tree" }
%"class.std::_Rb_tree" = type { %"struct.std::_Rb_tree<Imf_3_2::Name, std::pair<const Imf_3_2::Name, Imf_3_2::Attribute *>, std::_Select1st<std::pair<const Imf_3_2::Name, Imf_3_2::Attribute *>>, std::less<Imf_3_2::Name>>::_Rb_tree_impl" }
%"struct.std::_Rb_tree<Imf_3_2::Name, std::pair<const Imf_3_2::Name, Imf_3_2::Attribute *>, std::_Select1st<std::pair<const Imf_3_2::Name, Imf_3_2::Attribute *>>, std::less<Imf_3_2::Name>>::_Rb_tree_impl" = type { %"struct.std::_Rb_tree_key_compare", %"struct.std::_Rb_tree_header" }
%"struct.std::_Rb_tree_key_compare" = type { %"struct.std::less" }
%"struct.std::less" = type { i8 }
%"struct.std::_Rb_tree_header" = type { %"struct.std::_Rb_tree_node_base", i64 }
%"struct.std::_Rb_tree_node_base" = type { i32, ptr, ptr, ptr }
%"class.Imf_3_2::FrameBuffer" = type { %"class.std::map.3" }
%"class.std::map.3" = type { %"class.std::_Rb_tree.4" }
%"class.std::_Rb_tree.4" = type { %"struct.std::_Rb_tree<Imf_3_2::Name, std::pair<const Imf_3_2::Name, Imf_3_2::Slice>, std::_Select1st<std::pair<const Imf_3_2::Name, Imf_3_2::Slice>>, std::less<Imf_3_2::Name>>::_Rb_tree_impl" }
%"struct.std::_Rb_tree<Imf_3_2::Name, std::pair<const Imf_3_2::Name, Imf_3_2::Slice>, std::_Select1st<std::pair<const Imf_3_2::Name, Imf_3_2::Slice>>, std::less<Imf_3_2::Name>>::_Rb_tree_impl" = type { %"struct.std::_Rb_tree_key_compare", %"struct.std::_Rb_tree_header" }
%"class.Imf_3_2::InputFile" = type { %"class.Imf_3_2::GenericInputFile", ptr }
%"class.Imf_3_2::GenericInputFile" = type { ptr }
%"struct.Imf_3_2::InputPartData" = type <{ %"class.Imf_3_2::Header", i32, i32, i32, [4 x i8], ptr, %"class.std::vector", i8, [7 x i8] }>
%"class.std::vector" = type { %"struct.std::_Vector_base" }
%"struct.std::_Vector_base" = type { %"struct.std::_Vector_base<unsigned long, std::allocator<unsigned long>>::_Vector_impl" }
%"struct.std::_Vector_base<unsigned long, std::allocator<unsigned long>>::_Vector_impl" = type { %"struct.std::_Vector_base<unsigned long, std::allocator<unsigned long>>::_Vector_impl_data" }
%"struct.std::_Vector_base<unsigned long, std::allocator<unsigned long>>::_Vector_impl_data" = type { ptr, ptr, ptr }

; Function Attrs: mustprogress uwtable
define hidden void @_ZN7Imf_3_29InputFile19multiPartInitializeEPNS_13InputPartDataE(ptr noundef nonnull align 8 dereferenceable(16) %this, ptr noundef %part) #4 align 2 {
entry:
  %this.addr = alloca ptr, align 8
  %part.addr = alloca ptr, align 8
  store ptr %this, ptr %this.addr, align 8
  store ptr %part, ptr %part.addr, align 8
  %this1 = load ptr, ptr %this.addr, align 8
  %0 = load ptr, ptr %part.addr, align 8
  %mutex = getelementptr inbounds %"struct.Imf_3_2::InputPartData", ptr %0, i32 0, i32 5
  %1 = load ptr, ptr %mutex, align 8
  %_data = getelementptr inbounds %"class.Imf_3_2::InputFile", ptr %this1, i32 0, i32 1
  %2 = load ptr, ptr %_data, align 8
  %_streamData = getelementptr inbounds %"struct.Imf_3_2::InputFile::Data", ptr %2, i32 0, i32 23
  store ptr %1, ptr %_streamData, align 8
  %3 = load ptr, ptr %part.addr, align 8
  %version = getelementptr inbounds %"struct.Imf_3_2::InputPartData", ptr %3, i32 0, i32 3
  %4 = load i32, ptr %version, align 8
  %_data2 = getelementptr inbounds %"class.Imf_3_2::InputFile", ptr %this1, i32 0, i32 1
  %5 = load ptr, ptr %_data2, align 8
  %version3 = getelementptr inbounds %"struct.Imf_3_2::InputFile::Data", ptr %5, i32 0, i32 2
  store i32 %4, ptr %version3, align 8
  %6 = load ptr, ptr %part.addr, align 8
  %header = getelementptr inbounds %"struct.Imf_3_2::InputPartData", ptr %6, i32 0, i32 0
  %_data4 = getelementptr inbounds %"class.Imf_3_2::InputFile", ptr %this1, i32 0, i32 1
  %7 = load ptr, ptr %_data4, align 8
  %header5 = getelementptr inbounds %"struct.Imf_3_2::InputFile::Data", ptr %7, i32 0, i32 1
  %call = call noundef nonnull align 8 dereferenceable(49) ptr @_ZN7Imf_3_26HeaderaSERKS0_(ptr noundef nonnull align 8 dereferenceable(49) %header5, ptr noundef nonnull align 8 dereferenceable(49) %header)
  %8 = load ptr, ptr %part.addr, align 8
  %partNumber = getelementptr inbounds %"struct.Imf_3_2::InputPartData", ptr %8, i32 0, i32 2
  %9 = load i32, ptr %partNumber, align 4
  %_data6 = getelementptr inbounds %"class.Imf_3_2::InputFile", ptr %this1, i32 0, i32 1
  %10 = load ptr, ptr %_data6, align 8
  %partNumber7 = getelementptr inbounds %"struct.Imf_3_2::InputFile::Data", ptr %10, i32 0, i32 18
  store i32 %9, ptr %partNumber7, align 4
  %11 = load ptr, ptr %part.addr, align 8
  %_data8 = getelementptr inbounds %"class.Imf_3_2::InputFile", ptr %this1, i32 0, i32 1
  %12 = load ptr, ptr %_data8, align 8
  %part9 = getelementptr inbounds %"struct.Imf_3_2::InputFile::Data", ptr %12, i32 0, i32 19
  store ptr %11, ptr %part9, align 8
  call void @_ZN7Imf_3_29InputFile10initializeEv(ptr noundef nonnull align 8 dereferenceable(16) %this1)
  ret void
}

; Function Attrs: mustprogress uwtable
define hidden void @_ZN7Imf_3_29InputFile23compatibilityInitializeERNS_7IStreamE(ptr noundef nonnull align 8 dereferenceable(16) %this, ptr noundef nonnull align 8 dereferenceable(40) %is) #4 align 2 personality ptr @__gxx_personality_v0 {
entry:
  %this.addr = alloca ptr, align 8
  %is.addr = alloca ptr, align 8
  %exn.slot = alloca ptr, align 8
  %ehselector.slot = alloca i32, align 4
  %part = alloca ptr, align 8
  store ptr %this, ptr %this.addr, align 8
  store ptr %is, ptr %is.addr, align 8
  %this1 = load ptr, ptr %this.addr, align 8
  %0 = load ptr, ptr %is.addr, align 8
  %vtable = load ptr, ptr %0, align 8
  %vfn = getelementptr inbounds ptr, ptr %vtable, i64 6
  %1 = load ptr, ptr %vfn, align 8
  call void %1(ptr noundef nonnull align 8 dereferenceable(40) %0, i64 noundef 0)
  %_data = getelementptr inbounds %"class.Imf_3_2::InputFile", ptr %this1, i32 0, i32 1
  %2 = load ptr, ptr %_data, align 8
  %multiPartBackwardSupport = getelementptr inbounds %"struct.Imf_3_2::InputFile::Data", ptr %2, i32 0, i32 20
  store i8 1, ptr %multiPartBackwardSupport, align 8
  %call = call noalias noundef nonnull ptr @_Znwm(i64 noundef 16) #18
  %3 = load ptr, ptr %is.addr, align 8
  %_data2 = getelementptr inbounds %"class.Imf_3_2::InputFile", ptr %this1, i32 0, i32 1
  %4 = load ptr, ptr %_data2, align 8
  %numThreads = getelementptr inbounds %"struct.Imf_3_2::InputFile::Data", ptr %4, i32 0, i32 17
  %5 = load i32, ptr %numThreads, align 8
  invoke void @_ZN7Imf_3_218MultiPartInputFileC1ERNS_7IStreamEib(ptr noundef nonnull align 8 dereferenceable(16) %call, ptr noundef nonnull align 8 dereferenceable(40) %3, i32 noundef %5, i1 noundef zeroext true)
          to label %invoke.cont unwind label %lpad

invoke.cont:                                      ; preds = %entry
  %_data3 = getelementptr inbounds %"class.Imf_3_2::InputFile", ptr %this1, i32 0, i32 1
  %6 = load ptr, ptr %_data3, align 8
  %multiPartFile = getelementptr inbounds %"struct.Imf_3_2::InputFile::Data", ptr %6, i32 0, i32 22
  store ptr %call, ptr %multiPartFile, align 8
  %_data4 = getelementptr inbounds %"class.Imf_3_2::InputFile", ptr %this1, i32 0, i32 1
  %7 = load ptr, ptr %_data4, align 8
  %multiPartFile5 = getelementptr inbounds %"struct.Imf_3_2::InputFile::Data", ptr %7, i32 0, i32 22
  %8 = load ptr, ptr %multiPartFile5, align 8
  %call6 = call noundef ptr @_ZN7Imf_3_218MultiPartInputFile7getPartEi(ptr noundef nonnull align 8 dereferenceable(16) %8, i32 noundef 0)
  store ptr %call6, ptr %part, align 8
  %9 = load ptr, ptr %part, align 8
  call void @_ZN7Imf_3_29InputFile19multiPartInitializeEPNS_13InputPartDataE(ptr noundef nonnull align 8 dereferenceable(16) %this1, ptr noundef %9)
  ret void

lpad:                                             ; preds = %entry
  %10 = landingpad { ptr, i32 }
          cleanup
  %11 = extractvalue { ptr, i32 } %10, 0
  store ptr %11, ptr %exn.slot, align 8
  %12 = extractvalue { ptr, i32 } %10, 1
  store i32 %12, ptr %ehselector.slot, align 4
  call void @_ZdlPv(ptr noundef %call) #17
  br label %eh.resume

eh.resume:                                        ; preds = %lpad
  %exn = load ptr, ptr %exn.slot, align 8
  %sel = load i32, ptr %ehselector.slot, align 4
  %lpad.val = insertvalue { ptr, i32 } poison, ptr %exn, 0
  %lpad.val7 = insertvalue { ptr, i32 } %lpad.val, i32 %sel, 1
  resume { ptr, i32 } %lpad.val7
}