; Function Attrs: mustprogress uwtable
define hidden void @_ZN7Imf_3_29InputFile23compatibilityInitializeERNS_7IStreamE(ptr nocapture noundef nonnull readonly align 8 dereferenceable(16) %this, ptr noundef nonnull align 8 dereferenceable(40) %is) local_unnamed_addr #3 align 2 personality ptr @__gxx_personality_v0 {
entry:
  %vtable = load ptr, ptr %is, align 8
  %vfn = getelementptr inbounds i8, ptr %vtable, i64 48
  %0 = load ptr, ptr %vfn, align 8
  tail call void %0(ptr noundef nonnull align 8 dereferenceable(40) %is, i64 noundef 0)
  %_data = getelementptr inbounds i8, ptr %this, i64 8
  %1 = load ptr, ptr %_data, align 8
  %multiPartBackwardSupport = getelementptr inbounds i8, ptr %1, i64 232
  store i8 1, ptr %multiPartBackwardSupport, align 8
  %call = tail call noalias noundef nonnull dereferenceable(16) ptr @_Znwm(i64 noundef 16) #25
  %2 = load ptr, ptr %_data, align 8
  %numThreads = getelementptr inbounds i8, ptr %2, i64 216
  %3 = load i32, ptr %numThreads, align 8
  invoke void @_ZN7Imf_3_218MultiPartInputFileC1ERNS_7IStreamEib(ptr noundef nonnull align 8 dereferenceable(16) %call, ptr noundef nonnull align 8 dereferenceable(40) %is, i32 noundef %3, i1 noundef zeroext true)
          to label %invoke.cont unwind label %lpad

invoke.cont:                                      ; preds = %entry
  %4 = load ptr, ptr %_data, align 8
  %multiPartFile = getelementptr inbounds i8, ptr %4, i64 240
  store ptr %call, ptr %multiPartFile, align 8
  %5 = load ptr, ptr %_data, align 8
  %multiPartFile5 = getelementptr inbounds i8, ptr %5, i64 240
  %6 = load ptr, ptr %multiPartFile5, align 8
  %call6 = tail call noundef ptr @_ZN7Imf_3_218MultiPartInputFile7getPartEi(ptr noundef nonnull align 8 dereferenceable(16) %6, i32 noundef 0)
  %mutex.i = getelementptr inbounds i8, ptr %call6, i64 72
  %7 = load ptr, ptr %mutex.i, align 8
  %8 = load ptr, ptr %_data, align 8
  %_streamData.i = getelementptr inbounds i8, ptr %8, i64 248
  store ptr %7, ptr %_streamData.i, align 8
  %version.i = getelementptr inbounds i8, ptr %call6, i64 64
  %9 = load i32, ptr %version.i, align 8
  %10 = load ptr, ptr %_data, align 8
  %version3.i = getelementptr inbounds i8, ptr %10, i64 96
  store i32 %9, ptr %version3.i, align 8
  %11 = load ptr, ptr %_data, align 8
  %header5.i = getelementptr inbounds i8, ptr %11, i64 40
  %call.i = tail call noundef nonnull align 8 dereferenceable(49) ptr @_ZN7Imf_3_26HeaderaSERKS0_(ptr noundef nonnull align 8 dereferenceable(49) %header5.i, ptr noundef nonnull align 8 dereferenceable(49) %call6)
  %partNumber.i = getelementptr inbounds i8, ptr %call6, i64 60
  %12 = load i32, ptr %partNumber.i, align 4
  %13 = load ptr, ptr %_data, align 8
  %partNumber7.i = getelementptr inbounds i8, ptr %13, i64 220
  store i32 %12, ptr %partNumber7.i, align 4
  %14 = load ptr, ptr %_data, align 8
  %part9.i = getelementptr inbounds i8, ptr %14, i64 224
  store ptr %call6, ptr %part9.i, align 8
  tail call void @_ZN7Imf_3_29InputFile10initializeEv(ptr noundef nonnull align 8 dereferenceable(16) %this)
  ret void

lpad:                                             ; preds = %entry
  %15 = landingpad { ptr, i32 }
          cleanup
  tail call void @_ZdlPv(ptr noundef nonnull %call) #23
  resume { ptr, i32 } %15
}